target datalayout = "e-m:e-p270:32:32-p271:32:32-p272:64:64-i64:64-i128:128-f80:128-n8:16:32:64-S128"
target triple = "x86_64-pc-linux-gnu"

%struct.pcre2_memctl = type { ptr, ptr, ptr }
%struct.sljit_compiler = type { i32, i32, ptr, ptr, ptr, ptr, ptr, ptr, ptr, ptr, ptr, ptr, ptr, ptr, i32, i32, i32, i32, i32, i64, i64, i64, i32 }
%struct.sljit_memory_fragment = type { ptr, i64, [1 x i8] }

; Function Attrs: nounwind uwtable
define internal void @pcre2_jit_free(ptr noundef %0, ptr noundef %1) #0 {
  %3 = alloca ptr, align 8
  %4 = alloca ptr, align 8
  %5 = alloca ptr, align 8
  store ptr %0, ptr %3, align 8
  store ptr %1, ptr %4, align 8
  %6 = load ptr, ptr %4, align 8
  store ptr %6, ptr %5, align 8
  %7 = load ptr, ptr %5, align 8
  %8 = getelementptr inbounds %struct.pcre2_memctl, ptr %7, i32 0, i32 1
  %9 = load ptr, ptr %8, align 8
  %10 = load ptr, ptr %3, align 8
  %11 = load ptr, ptr %5, align 8
  %12 = getelementptr inbounds %struct.pcre2_memctl, ptr %11, i32 0, i32 2
  %13 = load ptr, ptr %12, align 8
  call void %9(ptr noundef %10, ptr noundef %13)
  ret void
}

; Function Attrs: nounwind uwtable
define internal void @sljit_free_compiler(ptr noundef %0) #0 {
  %2 = alloca ptr, align 8
  %3 = alloca ptr, align 8
  %4 = alloca ptr, align 8
  %5 = alloca ptr, align 8
  store ptr %0, ptr %2, align 8
  %6 = load ptr, ptr %2, align 8
  %7 = getelementptr inbounds %struct.sljit_compiler, ptr %6, i32 0, i32 10
  %8 = load ptr, ptr %7, align 8
  store ptr %8, ptr %5, align 8
  %9 = load ptr, ptr %2, align 8
  %10 = getelementptr inbounds %struct.sljit_compiler, ptr %9, i32 0, i32 12
  %11 = load ptr, ptr %10, align 8
  store ptr %11, ptr %3, align 8
  br label %12

12:                                               ; preds = %15, %1
  %13 = load ptr, ptr %3, align 8
  %14 = icmp ne ptr %13, null
  br i1 %14, label %15, label %22

15:                                               ; preds = %12
  %16 = load ptr, ptr %3, align 8
  store ptr %16, ptr %4, align 8
  %17 = load ptr, ptr %3, align 8
  %18 = getelementptr inbounds %struct.sljit_memory_fragment, ptr %17, i32 0, i32 0
  %19 = load ptr, ptr %18, align 8
  store ptr %19, ptr %3, align 8
  %20 = load ptr, ptr %4, align 8
  %21 = load ptr, ptr %5, align 8
  call void @pcre2_jit_free(ptr noundef %20, ptr noundef %21)
  br label %12

22:                                               ; preds = %12
  %23 = load ptr, ptr %2, align 8
  %24 = getelementptr inbounds %struct.sljit_compiler, ptr %23, i32 0, i32 13
  %25 = load ptr, ptr %24, align 8
  store ptr %25, ptr %3, align 8
  br label %26

26:                                               ; preds = %29, %22
  %27 = load ptr, ptr %3, align 8
  %28 = icmp ne ptr %27, null
  br i1 %28, label %29, label %36

29:                                               ; preds = %26
  %30 = load ptr, ptr %3, align 8
  store ptr %30, ptr %4, align 8
  %31 = load ptr, ptr %3, align 8
  %32 = getelementptr inbounds %struct.sljit_memory_fragment, ptr %31, i32 0, i32 0
  %33 = load ptr, ptr %32, align 8
  store ptr %33, ptr %3, align 8
  %34 = load ptr, ptr %4, align 8
  %35 = load ptr, ptr %5, align 8
  call void @pcre2_jit_free(ptr noundef %34, ptr noundef %35)
  br label %26

36:                                               ; preds = %26
  %37 = load ptr, ptr %2, align 8
  %38 = load ptr, ptr %5, align 8
  call void @pcre2_jit_free(ptr noundef %37, ptr noundef %38)
  ret void
}