; Function Attrs: nounwind uwtable
define internal fastcc void @sljit_free_compiler(ptr noundef %0) unnamed_addr #0 {
  %2 = getelementptr inbounds i8, ptr %0, i64 72
  %3 = load ptr, ptr %2, align 8
  %4 = getelementptr inbounds i8, ptr %0, i64 88
  %5 = load ptr, ptr %4, align 8
  %.not21 = icmp eq ptr %5, null
  br i1 %.not21, label %._crit_edge, label %.lr.ph

.lr.ph:                                           ; preds = %1
  %6 = getelementptr i8, ptr %3, i64 8
  %7 = getelementptr i8, ptr %3, i64 16
  br label %8

8:                                                ; preds = %.lr.ph, %8
  %.022 = phi ptr [ %5, %.lr.ph ], [ %9, %8 ]
  %9 = load ptr, ptr %.022, align 8
  %.val19 = load ptr, ptr %6, align 8
  %.val20 = load ptr, ptr %7, align 8
  tail call void %.val19(ptr noundef nonnull %.022, ptr noundef %.val20) #18
  %.not = icmp eq ptr %9, null
  br i1 %.not, label %._crit_edge, label %8

._crit_edge:                                      ; preds = %8, %1
  %10 = getelementptr inbounds i8, ptr %0, i64 96
  %11 = load ptr, ptr %10, align 8
  %.not1523 = icmp eq ptr %11, null
  br i1 %.not1523, label %._crit_edge27, label %.lr.ph26

.lr.ph26:                                         ; preds = %._crit_edge
  %12 = getelementptr i8, ptr %3, i64 8
  %13 = getelementptr i8, ptr %3, i64 16
  br label %14

14:                                               ; preds = %.lr.ph26, %14
  %.124 = phi ptr [ %11, %.lr.ph26 ], [ %15, %14 ]
  %15 = load ptr, ptr %.124, align 8
  %.val17 = load ptr, ptr %12, align 8
  %.val18 = load ptr, ptr %13, align 8
  tail call void %.val17(ptr noundef nonnull %.124, ptr noundef %.val18) #18
  %.not15 = icmp eq ptr %15, null
  br i1 %.not15, label %._crit_edge27, label %14

._crit_edge27:                                    ; preds = %14, %._crit_edge
  %16 = getelementptr i8, ptr %3, i64 8
  %.val = load ptr, ptr %16, align 8
  %17 = getelementptr i8, ptr %3, i64 16
  %.val16 = load ptr, ptr %17, align 8
  tail call void %.val(ptr noundef %0, ptr noundef %.val16) #18
  ret void
}